(dp0
S'tut_ols_rlm.py'
p1
S'0f2e06f1197143a19ca0fec02901cd96'
p2
sS'example_glm.py'
p3
S'c1d92c14cd738b9e09d9718125df87cb'
p4
sS'example_wls.py'
p5
S'26ebb778240cda0541a577e5e2365360'
p6
sS'/home/skipper/statsmodels/statsmodels/examples/tsa/ex_dates.py'
p7
S'f4cd0951a6cd8fdd6b86474f506816cc'
p8
sS'example_ols.py'
p9
S'85d8376ae459599d9ccf870bd1a8de37'
p10
sS'example_discrete.py'
p11
S'16cbdea4c6c340cfc7bbbba252fa55fc'
p12
sS'tut_ols_wls.py'
p13
S'ab0c2ddfc6768f55d30bf83c5b850360'
p14
sS'ex_arma2.py'
p15
S'ffd5654e06850a487a3579dd9c254894'
p16
sS'example_gls.py'
p17
S'5991ac14249e3bf65a1e166134976c3d'
p18
sS'example_predict.py'
p19
S'79a8aba919a74128a90c2c09f616ee50'
p20
sS'tut_ols.py'
p21
S'43f9f9a26cf5589aa22368ee2bb21869'
p22
sS'example_ols_minimal.py'
p23
S'3ef30c271f8370c3892f376516d2376c'
p24
sS'example_rlm.py'
p25
S'a0a91fcdb9b38946e4c4f63574e988cf'
p26
sS'ex_dates.py'
p27
S'aecaed14e53fab57646d3cf98e60cf2f'
p28
s.